; Function Attrs: mustprogress nounwind uwtable
define internal noundef zeroext i1 @_ZN4llvm20MCAsmParserExtension15HandleDirectiveIN12_GLOBAL__N_114COFFMasmParserETnMT_FbNS_9StringRefENS_5SMLocEEXadL_ZNS3_24ParseDirectiveSegmentEndES5_S6_EEEEbPS0_S5_S6_(ptr nocapture noundef readonly %0, ptr nocapture readnone %1, i64 %2, ptr nocapture readnone %3) #0 align 2 {
  %5 = alloca %"class.llvm::Twine", align 8
  call void @llvm.lifetime.start.p0(i64 40, ptr nonnull %5)
  %6 = getelementptr inbounds nuw i8, ptr %0, i64 8
  %7 = load ptr, ptr %6, align 8
  %8 = load ptr, ptr %7, align 8
  %9 = getelementptr inbounds i8, ptr %8, i64 40
  %10 = load ptr, ptr %9, align 8
  %11 = tail call noundef nonnull align 8 dereferenceable(144) ptr %10(ptr noundef nonnull align 8 dereferenceable(34) %7) #16
  %12 = getelementptr inbounds nuw i8, ptr %11, i64 8
  %13 = load ptr, ptr %12, align 8
  %14 = load i32, ptr %13, align 8
  %15 = icmp eq i32 %14, 2
  br i1 %15, label %_ZNK4llvm8AsmToken13getIdentifierEv.exit.i, label %16

16:                                               ; preds = %4
  %17 = getelementptr inbounds nuw i8, ptr %5, i64 32
  %18 = getelementptr inbounds nuw i8, ptr %5, i64 33
  store i8 1, ptr %18, align 1
  store ptr @.str.71, ptr %5, align 8
  store i8 3, ptr %17, align 8
  %19 = load ptr, ptr %6, align 8
  %20 = call noundef zeroext i1 @_ZN4llvm11MCAsmParser8TokErrorERKNS_5TwineENS_7SMRangeE(ptr noundef nonnull align 8 dereferenceable(34) %19, ptr noundef nonnull align 8 dereferenceable(34) %5, ptr null, ptr null) #16
  br label %_ZN12_GLOBAL__N_114COFFMasmParser24ParseDirectiveSegmentEndEN4llvm9StringRefENS1_5SMLocE.exit

_ZNK4llvm8AsmToken13getIdentifierEv.exit.i:       ; preds = %4
  %21 = load ptr, ptr %6, align 8
  %22 = tail call noundef nonnull align 8 dereferenceable(40) ptr @_ZNK4llvm11MCAsmParser6getTokEv(ptr noundef nonnull align 8 dereferenceable(34) %21) #16
  %23 = load ptr, ptr %6, align 8
  %24 = load ptr, ptr %23, align 8
  %25 = getelementptr inbounds i8, ptr %24, i64 184
  %26 = load ptr, ptr %25, align 8
  %27 = tail call noundef nonnull align 8 dereferenceable(40) ptr %26(ptr noundef nonnull align 8 dereferenceable(34) %23) #16
  br label %_ZN12_GLOBAL__N_114COFFMasmParser24ParseDirectiveSegmentEndEN4llvm9StringRefENS1_5SMLocE.exit

_ZN12_GLOBAL__N_114COFFMasmParser24ParseDirectiveSegmentEndEN4llvm9StringRefENS1_5SMLocE.exit: ; preds = %16, %_ZNK4llvm8AsmToken13getIdentifierEv.exit.i
  %.0.i = phi i1 [ false, %_ZNK4llvm8AsmToken13getIdentifierEv.exit.i ], [ %20, %16 ]
  call void @llvm.lifetime.end.p0(i64 40, ptr nonnull %5)
  ret i1 %.0.i
}